; Function Attrs: nounwind uwtable
define dso_local i32 @typeOrDomainTypeRelid(i32 noundef %0) local_unnamed_addr #0 {
  %2 = zext i32 %0 to i64
  %3 = tail call ptr @SearchSysCache1(i32 noundef 82, i64 noundef %2) #7
  %.not14 = icmp eq ptr %3, null
  br i1 %.not14, label %._crit_edge, label %.lr.ph

._crit_edge:                                      ; preds = %14, %1
  %.0.lcssa = phi i32 [ %0, %1 ], [ %16, %14 ]
  %4 = tail call zeroext i1 @errstart_cold(i32 noundef 21, ptr noundef null) #8
  tail call void @llvm.assume(i1 %4)
  %5 = tail call i32 (ptr, ...) @errmsg_internal(ptr noundef nonnull @.str.5, i32 noundef %.0.lcssa) #7
  tail call void @errfinish(ptr noundef nonnull @.str.1, i32 noundef 699, ptr noundef nonnull @__func__.typeOrDomainTypeRelid) #7
  unreachable

.lr.ph:                                           ; preds = %1, %14
  %6 = phi ptr [ %18, %14 ], [ %3, %1 ]
  %7 = getelementptr i8, ptr %6, i64 16
  %.val = load ptr, ptr %7, align 8
  %8 = getelementptr inbounds nuw i8, ptr %.val, i64 22
  %9 = load i8, ptr %8, align 2
  %10 = zext i8 %9 to i64
  %11 = getelementptr inbounds nuw i8, ptr %.val, i64 %10
  %12 = getelementptr inbounds nuw i8, ptr %11, i64 79
  %13 = load i8, ptr %12, align 1
  %.not10 = icmp eq i8 %13, 100
  br i1 %.not10, label %14, label %19

14:                                               ; preds = %.lr.ph
  %15 = getelementptr inbounds nuw i8, ptr %11, i64 132
  %16 = load i32, ptr %15, align 4
  tail call void @ReleaseSysCache(ptr noundef nonnull %6) #7
  %17 = zext i32 %16 to i64
  %18 = tail call ptr @SearchSysCache1(i32 noundef 82, i64 noundef %17) #7
  %.not = icmp eq ptr %18, null
  br i1 %.not, label %._crit_edge, label %.lr.ph

19:                                               ; preds = %.lr.ph
  %20 = getelementptr inbounds nuw i8, ptr %11, i64 84
  %21 = load i32, ptr %20, align 4
  tail call void @ReleaseSysCache(ptr noundef nonnull %6) #7
  ret i32 %21
}